#include <math.h>
#include <stdio.h>
#include <stdlib.h>
#include <string.h>

int main () {
int n,i,j,s,p,q=0;
scanf ("%d",&n);
for (i=1;i<=n-2;i++){
s=0;p=0;
for (j=1;j<=i;j++){
if (i%j==0){
s++;
}
if ((i+2)%j==0){
p++;
}
}
if (s==2&&p==1){
printf ("%d %d\n",i,i+2);
q++;
}
}
if (q==0){
printf ("empty");
}
return 0;
}

